; Function Attrs: nounwind uwtable
define noalias nonnull ptr @l_Array_forIn_x27Unsafe_loop___at_Lean_Meta_mkSimpCongrTheorem___spec__8___lambda__1(ptr noundef %0, ptr noundef %1, ptr noundef %2, ptr noundef %3, ptr readnone captures(none) %4, ptr readnone captures(none) %5, ptr readnone captures(none) %6, ptr readnone captures(none) %7, ptr readnone captures(none) %8, ptr noundef %9) local_unnamed_addr #1 {
  %11 = ptrtoint ptr %3 to i64
  %12 = and i64 %11, 1
  %.not = icmp eq i64 %12, 0
  br i1 %.not, label %.critedge.i, label %13, !prof !16

13:                                               ; preds = %10
  %14 = lshr i64 %11, 1
  %15 = add nuw i64 %14, 1
  %16 = icmp sgt i64 %15, -1
  br i1 %16, label %17, label %21, !prof !11

17:                                               ; preds = %13
  %18 = shl nuw i64 %15, 1
  %19 = or disjoint i64 %18, 1
  %20 = inttoptr i64 %19 to ptr
  br label %lean_nat_add.exit

21:                                               ; preds = %13
  %22 = tail call ptr @lean_big_usize_to_nat(i64 noundef %15) #5
  br label %lean_nat_add.exit

.critedge.i:                                      ; preds = %10
  %23 = tail call ptr @lean_nat_big_add(ptr noundef %3, ptr noundef nonnull inttoptr (i64 3 to ptr)) #5
  br label %lean_nat_add.exit

lean_nat_add.exit:                                ; preds = %21, %17, %.critedge.i
  %.0.i = phi ptr [ %23, %.critedge.i ], [ %20, %17 ], [ %22, %21 ]
  tail call void @lean_inc_heartbeat() #5
  %24 = tail call noalias ptr @mi_malloc_small(i64 noundef 24) #5
  %25 = icmp eq ptr %24, null
  br i1 %25, label %26, label %lean_alloc_ctor.exit

26:                                               ; preds = %lean_nat_add.exit
  tail call void @lean_internal_panic_out_of_memory() #6
  unreachable

lean_alloc_ctor.exit:                             ; preds = %lean_nat_add.exit
  %27 = getelementptr inbounds nuw i8, ptr %24, i64 4
  store i32 1, ptr %24, align 4, !tbaa !4
  store i32 131096, ptr %27, align 4
  %28 = getelementptr inbounds nuw i8, ptr %24, i64 8
  store ptr %2, ptr %28, align 8, !tbaa !9
  %29 = getelementptr inbounds nuw i8, ptr %24, i64 16
  store ptr %.0.i, ptr %29, align 8, !tbaa !9
  tail call void @lean_inc_heartbeat() #5
  %30 = tail call noalias ptr @mi_malloc_small(i64 noundef 24) #5
  %31 = icmp eq ptr %30, null
  br i1 %31, label %32, label %lean_alloc_ctor.exit22

32:                                               ; preds = %lean_alloc_ctor.exit
  tail call void @lean_internal_panic_out_of_memory() #6
  unreachable

lean_alloc_ctor.exit22:                           ; preds = %lean_alloc_ctor.exit
  %33 = getelementptr inbounds nuw i8, ptr %30, i64 4
  store i32 1, ptr %30, align 4, !tbaa !4
  store i32 131096, ptr %33, align 4
  %34 = getelementptr inbounds nuw i8, ptr %30, i64 8
  store ptr %1, ptr %34, align 8, !tbaa !9
  %35 = getelementptr inbounds nuw i8, ptr %30, i64 16
  store ptr %24, ptr %35, align 8, !tbaa !9
  tail call void @lean_inc_heartbeat() #5
  %36 = tail call noalias ptr @mi_malloc_small(i64 noundef 24) #5
  %37 = icmp eq ptr %36, null
  br i1 %37, label %38, label %lean_alloc_ctor.exit23

38:                                               ; preds = %lean_alloc_ctor.exit22
  tail call void @lean_internal_panic_out_of_memory() #6
  unreachable

lean_alloc_ctor.exit23:                           ; preds = %lean_alloc_ctor.exit22
  %39 = getelementptr inbounds nuw i8, ptr %36, i64 4
  store i32 1, ptr %36, align 4, !tbaa !4
  store i32 131096, ptr %39, align 4
  %40 = getelementptr inbounds nuw i8, ptr %36, i64 8
  store ptr %0, ptr %40, align 8, !tbaa !9
  %41 = getelementptr inbounds nuw i8, ptr %36, i64 16
  store ptr %30, ptr %41, align 8, !tbaa !9
  tail call void @lean_inc_heartbeat() #5
  %42 = tail call noalias ptr @mi_malloc_small(i64 noundef 16) #5
  %43 = icmp eq ptr %42, null
  br i1 %43, label %44, label %lean_alloc_ctor.exit24

44:                                               ; preds = %lean_alloc_ctor.exit23
  tail call void @lean_internal_panic_out_of_memory() #6
  unreachable

lean_alloc_ctor.exit24:                           ; preds = %lean_alloc_ctor.exit23
  %45 = getelementptr inbounds nuw i8, ptr %42, i64 4
  store i32 1, ptr %42, align 4, !tbaa !4
  store i32 16842768, ptr %45, align 4
  %46 = getelementptr inbounds nuw i8, ptr %42, i64 8
  store ptr %36, ptr %46, align 8, !tbaa !9
  tail call void @lean_inc_heartbeat() #5
  %47 = tail call noalias ptr @mi_malloc_small(i64 noundef 24) #5
  %48 = icmp eq ptr %47, null
  br i1 %48, label %49, label %lean_alloc_ctor.exit25

49:                                               ; preds = %lean_alloc_ctor.exit24
  tail call void @lean_internal_panic_out_of_memory() #6
  unreachable

lean_alloc_ctor.exit25:                           ; preds = %lean_alloc_ctor.exit24
  %50 = getelementptr inbounds nuw i8, ptr %47, i64 4
  store i32 1, ptr %47, align 4, !tbaa !4
  store i32 131096, ptr %50, align 4
  %51 = getelementptr inbounds nuw i8, ptr %47, i64 8
  store ptr %42, ptr %51, align 8, !tbaa !9
  %52 = getelementptr inbounds nuw i8, ptr %47, i64 16
  store ptr %9, ptr %52, align 8, !tbaa !9
  ret ptr %47
}